target datalayout = "e-m:e-p270:32:32-p271:32:32-p272:64:64-i64:64-i128:128-f80:128-n8:16:32:64-S128"
target triple = "x86_64-pc-linux-gnu"

; Function Attrs: cold nounwind optsize uwtable
define i32 @ff_pthread_init(ptr noundef %0, ptr noundef %1) #0 {
  %3 = alloca i32, align 4
  %4 = alloca ptr, align 8
  %5 = alloca ptr, align 8
  %6 = alloca ptr, align 8
  %7 = alloca i32, align 4
  %8 = alloca i32, align 4
  %9 = alloca ptr, align 8
  %10 = alloca i32, align 4
  %11 = alloca ptr, align 8
  store ptr %0, ptr %4, align 8, !tbaa !40
  store ptr %1, ptr %5, align 8, !tbaa !41
  call void @llvm.lifetime.start.p0(i64 8, ptr %6) #6
  %12 = load ptr, ptr %5, align 8, !tbaa !41
  store ptr %12, ptr %6, align 8, !tbaa !41
  call void @llvm.lifetime.start.p0(i64 4, ptr %7) #6
  store i32 0, ptr %7, align 4, !tbaa !37
  call void @llvm.lifetime.start.p0(i64 4, ptr %8) #6
  br label %13

13:                                               ; preds = %35, %2
  %14 = load ptr, ptr %6, align 8, !tbaa !41
  %15 = getelementptr inbounds nuw i32, ptr %14, i32 1
  store ptr %15, ptr %6, align 8, !tbaa !41
  %16 = load i32, ptr %15, align 4, !tbaa !37
  %17 = icmp ne i32 %16, 0
  br i1 %17, label %18, label %38

18:                                               ; preds = %13
  call void @llvm.lifetime.start.p0(i64 8, ptr %9) #6
  %19 = load ptr, ptr %4, align 8, !tbaa !40
  %20 = load ptr, ptr %6, align 8, !tbaa !41
  %21 = load i32, ptr %20, align 4, !tbaa !37
  %22 = zext i32 %21 to i64
  %23 = getelementptr inbounds nuw i8, ptr %19, i64 %22
  store ptr %23, ptr %9, align 8, !tbaa !40
  %24 = load ptr, ptr %9, align 8, !tbaa !40
  %25 = call i32 @pthread_mutex_init(ptr noundef %24, ptr noundef null) #6
  store i32 %25, ptr %8, align 4, !tbaa !37
  %26 = load i32, ptr %8, align 4, !tbaa !37
  %27 = icmp ne i32 %26, 0
  br i1 %27, label %28, label %31

28:                                               ; preds = %18
  %29 = load i32, ptr %8, align 4, !tbaa !37
  %30 = sub nsw i32 0, %29
  store i32 %30, ptr %8, align 4, !tbaa !37
  store i32 5, ptr %10, align 4
  br label %32

31:                                               ; preds = %18
  store i32 0, ptr %10, align 4
  br label %32

32:                                               ; preds = %28, %31
  call void @llvm.lifetime.end.p0(i64 8, ptr %9) #6
  %33 = load i32, ptr %10, align 4
  switch i32 %33, label %74 [
    i32 0, label %34
    i32 5, label %65
  ]

34:                                               ; preds = %32
  br label %35

35:                                               ; preds = %34
  %36 = load i32, ptr %7, align 4, !tbaa !37
  %37 = add i32 %36, 1
  store i32 %37, ptr %7, align 4, !tbaa !37
  br label %13, !llvm.loop !45

38:                                               ; preds = %13
  br label %39

39:                                               ; preds = %61, %38
  %40 = load ptr, ptr %6, align 8, !tbaa !41
  %41 = getelementptr inbounds nuw i32, ptr %40, i32 1
  store ptr %41, ptr %6, align 8, !tbaa !41
  %42 = load i32, ptr %41, align 4, !tbaa !37
  %43 = icmp ne i32 %42, 0
  br i1 %43, label %44, label %64

44:                                               ; preds = %39
  call void @llvm.lifetime.start.p0(i64 8, ptr %11) #6
  %45 = load ptr, ptr %4, align 8, !tbaa !40
  %46 = load ptr, ptr %6, align 8, !tbaa !41
  %47 = load i32, ptr %46, align 4, !tbaa !37
  %48 = zext i32 %47 to i64
  %49 = getelementptr inbounds nuw i8, ptr %45, i64 %48
  store ptr %49, ptr %11, align 8, !tbaa !40
  %50 = load ptr, ptr %11, align 8, !tbaa !40
  %51 = call i32 @pthread_cond_init(ptr noundef %50, ptr noundef null) #6
  store i32 %51, ptr %8, align 4, !tbaa !37
  %52 = load i32, ptr %8, align 4, !tbaa !37
  %53 = icmp ne i32 %52, 0
  br i1 %53, label %54, label %57

54:                                               ; preds = %44
  %55 = load i32, ptr %8, align 4, !tbaa !37
  %56 = sub nsw i32 0, %55
  store i32 %56, ptr %8, align 4, !tbaa !37
  store i32 5, ptr %10, align 4
  br label %58

57:                                               ; preds = %44
  store i32 0, ptr %10, align 4
  br label %58

58:                                               ; preds = %54, %57
  call void @llvm.lifetime.end.p0(i64 8, ptr %11) #6
  %59 = load i32, ptr %10, align 4
  switch i32 %59, label %74 [
    i32 0, label %60
    i32 5, label %65
  ]

60:                                               ; preds = %58
  br label %61

61:                                               ; preds = %60
  %62 = load i32, ptr %7, align 4, !tbaa !37
  %63 = add i32 %62, 1
  store i32 %63, ptr %7, align 4, !tbaa !37
  br label %39, !llvm.loop !46

64:                                               ; preds = %39
  br label %65

65:                                               ; preds = %64, %58, %32
  %66 = load i32, ptr %7, align 4, !tbaa !37
  %67 = load ptr, ptr %4, align 8, !tbaa !40
  %68 = load ptr, ptr %5, align 8, !tbaa !41
  %69 = getelementptr inbounds i32, ptr %68, i64 0
  %70 = load i32, ptr %69, align 4, !tbaa !37
  %71 = zext i32 %70 to i64
  %72 = getelementptr inbounds nuw i8, ptr %67, i64 %71
  store i32 %66, ptr %72, align 4, !tbaa !37
  %73 = load i32, ptr %8, align 4, !tbaa !37
  store i32 %73, ptr %3, align 4
  store i32 1, ptr %10, align 4
  br label %74

74:                                               ; preds = %65, %58, %32
  call void @llvm.lifetime.end.p0(i64 4, ptr %8) #6
  call void @llvm.lifetime.end.p0(i64 4, ptr %7) #6
  call void @llvm.lifetime.end.p0(i64 8, ptr %6) #6
  %75 = load i32, ptr %3, align 4
  ret i32 %75
}