; Function Attrs: cold nounwind optsize uwtable
define range(i32 -2147483647, -2147483648) i32 @ff_pthread_init(ptr noundef %0, ptr noundef readonly captures(none) %1) local_unnamed_addr #0 {
  %3 = getelementptr inbounds nuw i8, ptr %1, i64 4
  %4 = load i32, ptr %3, align 4, !tbaa !37
  %.not43 = icmp eq i32 %4, 0
  br i1 %.not43, label %.preheader, label %.lr.ph

.preheader:                                       ; preds = %13, %2
  %.026.lcssa = phi i32 [ 0, %2 ], [ %14, %13 ]
  %5 = phi ptr [ %1, %2 ], [ %9, %13 ]
  %6 = getelementptr inbounds nuw i8, ptr %5, i64 8
  %7 = load i32, ptr %6, align 4, !tbaa !37
  %.not3550 = icmp eq i32 %7, 0
  br i1 %.not3550, label %.loopexit, label %.lr.ph52

.lr.ph:                                           ; preds = %2, %13
  %8 = phi i32 [ %16, %13 ], [ %4, %2 ]
  %9 = phi ptr [ %15, %13 ], [ %3, %2 ]
  %.02644 = phi i32 [ %14, %13 ], [ 0, %2 ]
  %10 = zext i32 %8 to i64
  %11 = getelementptr inbounds nuw i8, ptr %0, i64 %10
  %12 = tail call i32 @pthread_mutex_init(ptr noundef nonnull %11, ptr noundef null) #4
  %.not37 = icmp eq i32 %12, 0
  br i1 %.not37, label %13, label %.loopexit38

13:                                               ; preds = %.lr.ph
  %14 = add i32 %.02644, 1
  %15 = getelementptr inbounds nuw i8, ptr %9, i64 4
  %16 = load i32, ptr %15, align 4, !tbaa !37
  %.not = icmp eq i32 %16, 0
  br i1 %.not, label %.preheader, label %.lr.ph, !llvm.loop !41

.lr.ph52:                                         ; preds = %.preheader, %22
  %17 = phi i32 [ %25, %22 ], [ %7, %.preheader ]
  %18 = phi ptr [ %24, %22 ], [ %6, %.preheader ]
  %.22851 = phi i32 [ %23, %22 ], [ %.026.lcssa, %.preheader ]
  %19 = zext i32 %17 to i64
  %20 = getelementptr inbounds nuw i8, ptr %0, i64 %19
  %21 = tail call i32 @pthread_cond_init(ptr noundef nonnull %20, ptr noundef null) #4
  %.not36 = icmp eq i32 %21, 0
  br i1 %.not36, label %22, label %.loopexit.split.loop.exit46

22:                                               ; preds = %.lr.ph52
  %23 = add i32 %.22851, 1
  %24 = getelementptr inbounds nuw i8, ptr %18, i64 4
  %25 = load i32, ptr %24, align 4, !tbaa !37
  %.not35 = icmp eq i32 %25, 0
  br i1 %.not35, label %.loopexit, label %.lr.ph52, !llvm.loop !42

.loopexit.split.loop.exit46:                      ; preds = %.lr.ph52
  %26 = sub nsw i32 0, %21
  br label %.loopexit

.loopexit38:                                      ; preds = %.lr.ph
  %27 = sub nsw i32 0, %12
  br label %.loopexit

.loopexit:                                        ; preds = %22, %.loopexit.split.loop.exit46, %.preheader, %.loopexit38
  %.127 = phi i32 [ %.02644, %.loopexit38 ], [ %.22851, %.loopexit.split.loop.exit46 ], [ %.026.lcssa, %.preheader ], [ %23, %22 ]
  %.2 = phi i32 [ %27, %.loopexit38 ], [ %26, %.loopexit.split.loop.exit46 ], [ 0, %.preheader ], [ 0, %22 ]
  %28 = load i32, ptr %1, align 4, !tbaa !37
  %29 = zext i32 %28 to i64
  %30 = getelementptr inbounds nuw i8, ptr %0, i64 %29
  store i32 %.127, ptr %30, align 4, !tbaa !37
  ret i32 %.2
}